target datalayout = "e-m:e-p270:32:32-p271:32:32-p272:64:64-i64:64-i128:128-f80:128-n8:16:32:64-S128"
target triple = "x86_64-pc-linux-gnu"

%struct.AVRational = type { i32, i32 }
%struct.AVFormatContext = type { ptr, ptr, ptr, ptr, ptr, i32, i32, ptr, i32, ptr, i32, ptr, ptr, i64, i64, i64, i32, i32, i32, i64, i64, ptr, i32, i32, ptr, i32, i32, i32, i32, ptr, i64, i32, i32, %struct.AVIOInterruptCB, i32, i32, i32, i32, i64, i32, i32, i32, i32, i32, i32, i32, i32, i32, i32, i32, i32, i64, i32, i32, i32, i32, i32, ptr, ptr, ptr, ptr, i32, ptr, ptr, ptr, ptr, i32, ptr, ptr, i64, ptr, ptr, ptr, i64 }
%struct.AVIOInterruptCB = type { ptr, ptr }
%struct.ogg = type { ptr, i32, i32, i32, i64, ptr }
%struct.ogg_stream = type { ptr, i32, i32, i32, i32, i32, i32, i32, i64, i64, i64, i64, i64, i64, i32, ptr, i32, i32, i32, [255 x i8], i32, i32, i32, i32, i32, i32, i32, i32, ptr, i64, ptr }
%struct.AVStream = type { ptr, i32, i32, ptr, ptr, %struct.AVRational, i64, i64, i64, i32, i32, %struct.AVRational, ptr, %struct.AVRational, %struct.AVPacket, i32, %struct.AVRational, i32 }
%struct.AVPacket = type { ptr, i64, i64, ptr, i32, i32, i32, ptr, i32, i64, i64, ptr, ptr, %struct.AVRational }
%struct.TheoraParams = type { i32, i32, i32 }

; Function Attrs: alwaysinline nounwind uwtable
define internal i64 @av_sat_sub64_c(i64 noundef %0, i64 noundef %1) #4 {
  %3 = alloca i64, align 8
  %4 = alloca i64, align 8
  %5 = alloca i64, align 8
  store i64 %0, ptr %3, align 8, !tbaa !89
  store i64 %1, ptr %4, align 8, !tbaa !89
  call void @llvm.lifetime.start.p0(i64 8, ptr %5) #9
  %6 = load i64, ptr %3, align 8, !tbaa !89
  %7 = load i64, ptr %4, align 8, !tbaa !89
  %8 = call { i64, i1 } @llvm.ssub.with.overflow.i64(i64 %6, i64 %7)
  %9 = extractvalue { i64, i1 } %8, 1
  %10 = extractvalue { i64, i1 } %8, 0
  store i64 %10, ptr %5, align 8
  br i1 %9, label %13, label %11

11:                                               ; preds = %2
  %12 = load i64, ptr %5, align 8, !tbaa !89
  br label %17

13:                                               ; preds = %2
  %14 = load i64, ptr %5, align 8, !tbaa !89
  %15 = icmp slt i64 %14, 0
  %16 = select i1 %15, i64 9223372036854775807, i64 -9223372036854775808
  br label %17

17:                                               ; preds = %13, %11
  %18 = phi i64 [ %12, %11 ], [ %16, %13 ]
  call void @llvm.lifetime.end.p0(i64 8, ptr %5) #9
  ret i64 %18
}

; Function Attrs: nounwind uwtable
define internal i64 @theora_gptopts(ptr noundef %0, i32 noundef %1, i64 noundef %2, ptr noundef %3) #0 {
  %5 = alloca i64, align 8
  %6 = alloca ptr, align 8
  %7 = alloca i32, align 4
  %8 = alloca i64, align 8
  %9 = alloca ptr, align 8
  %10 = alloca ptr, align 8
  %11 = alloca ptr, align 8
  %12 = alloca ptr, align 8
  %13 = alloca i64, align 8
  %14 = alloca i64, align 8
  %15 = alloca i32, align 4
  store ptr %0, ptr %6, align 8, !tbaa !4
  store i32 %1, ptr %7, align 4, !tbaa !9
  store i64 %2, ptr %8, align 8, !tbaa !89
  store ptr %3, ptr %9, align 8, !tbaa !94
  call void @llvm.lifetime.start.p0(i64 8, ptr %10) #9
  %16 = load ptr, ptr %6, align 8, !tbaa !4
  %17 = getelementptr inbounds nuw %struct.AVFormatContext, ptr %16, i32 0, i32 3
  %18 = load ptr, ptr %17, align 8, !tbaa !11
  store ptr %18, ptr %10, align 8, !tbaa !27
  call void @llvm.lifetime.start.p0(i64 8, ptr %11) #9
  %19 = load ptr, ptr %10, align 8, !tbaa !27
  %20 = getelementptr inbounds nuw %struct.ogg, ptr %19, i32 0, i32 0
  %21 = load ptr, ptr %20, align 8, !tbaa !29
  %22 = load i32, ptr %7, align 4, !tbaa !9
  %23 = sext i32 %22 to i64
  %24 = getelementptr inbounds %struct.ogg_stream, ptr %21, i64 %23
  store ptr %24, ptr %11, align 8, !tbaa !33
  call void @llvm.lifetime.start.p0(i64 8, ptr %12) #9
  %25 = load ptr, ptr %11, align 8, !tbaa !33
  %26 = getelementptr inbounds nuw %struct.ogg_stream, ptr %25, i32 0, i32 30
  %27 = load ptr, ptr %26, align 8, !tbaa !37
  store ptr %27, ptr %12, align 8, !tbaa !40
  call void @llvm.lifetime.start.p0(i64 8, ptr %13) #9
  call void @llvm.lifetime.start.p0(i64 8, ptr %14) #9
  %28 = load ptr, ptr %12, align 8, !tbaa !40
  %29 = icmp ne ptr %28, null
  br i1 %29, label %31, label %30

30:                                               ; preds = %4
  store i64 -9223372036854775808, ptr %5, align 8
  store i32 1, ptr %15, align 4
  br label %71

31:                                               ; preds = %4
  %32 = load i64, ptr %8, align 8, !tbaa !89
  %33 = load ptr, ptr %12, align 8, !tbaa !40
  %34 = getelementptr inbounds nuw %struct.TheoraParams, ptr %33, i32 0, i32 0
  %35 = load i32, ptr %34, align 4, !tbaa !64
  %36 = zext i32 %35 to i64
  %37 = lshr i64 %32, %36
  store i64 %37, ptr %13, align 8, !tbaa !89
  %38 = load i64, ptr %8, align 8, !tbaa !89
  %39 = load ptr, ptr %12, align 8, !tbaa !40
  %40 = getelementptr inbounds nuw %struct.TheoraParams, ptr %39, i32 0, i32 1
  %41 = load i32, ptr %40, align 4, !tbaa !65
  %42 = sext i32 %41 to i64
  %43 = and i64 %38, %42
  store i64 %43, ptr %14, align 8, !tbaa !89
  %44 = load ptr, ptr %12, align 8, !tbaa !40
  %45 = getelementptr inbounds nuw %struct.TheoraParams, ptr %44, i32 0, i32 2
  %46 = load i32, ptr %45, align 4, !tbaa !56
  %47 = icmp ult i32 %46, 197121
  br i1 %47, label %48, label %51

48:                                               ; preds = %31
  %49 = load i64, ptr %13, align 8, !tbaa !89
  %50 = add i64 %49, 1
  store i64 %50, ptr %13, align 8, !tbaa !89
  br label %51

51:                                               ; preds = %48, %31
  %52 = load i64, ptr %14, align 8, !tbaa !89
  %53 = icmp ne i64 %52, 0
  br i1 %53, label %59, label %54

54:                                               ; preds = %51
  %55 = load ptr, ptr %11, align 8, !tbaa !33
  %56 = getelementptr inbounds nuw %struct.ogg_stream, ptr %55, i32 0, i32 5
  %57 = load i32, ptr %56, align 8, !tbaa !96
  %58 = or i32 %57, 1
  store i32 %58, ptr %56, align 8, !tbaa !96
  br label %59

59:                                               ; preds = %54, %51
  %60 = load ptr, ptr %9, align 8, !tbaa !94
  %61 = icmp ne ptr %60, null
  br i1 %61, label %62, label %67

62:                                               ; preds = %59
  %63 = load i64, ptr %13, align 8, !tbaa !89
  %64 = load i64, ptr %14, align 8, !tbaa !89
  %65 = add i64 %63, %64
  %66 = load ptr, ptr %9, align 8, !tbaa !94
  store i64 %65, ptr %66, align 8, !tbaa !89
  br label %67

67:                                               ; preds = %62, %59
  %68 = load i64, ptr %13, align 8, !tbaa !89
  %69 = load i64, ptr %14, align 8, !tbaa !89
  %70 = add i64 %68, %69
  store i64 %70, ptr %5, align 8
  store i32 1, ptr %15, align 4
  br label %71

71:                                               ; preds = %67, %30
  call void @llvm.lifetime.end.p0(i64 8, ptr %14) #9
  call void @llvm.lifetime.end.p0(i64 8, ptr %13) #9
  call void @llvm.lifetime.end.p0(i64 8, ptr %12) #9
  call void @llvm.lifetime.end.p0(i64 8, ptr %11) #9
  call void @llvm.lifetime.end.p0(i64 8, ptr %10) #9
  %72 = load i64, ptr %5, align 8
  ret i64 %72
}

; Function Attrs: nounwind uwtable
define internal i32 @theora_packet(ptr noundef %0, i32 noundef %1) #0 {
  %3 = alloca ptr, align 8
  %4 = alloca i32, align 4
  %5 = alloca ptr, align 8
  %6 = alloca ptr, align 8
  %7 = alloca i32, align 4
  %8 = alloca i32, align 4
  %9 = alloca i64, align 8
  store ptr %0, ptr %3, align 8, !tbaa !4
  store i32 %1, ptr %4, align 4, !tbaa !9
  call void @llvm.lifetime.start.p0(i64 8, ptr %5) #9
  %10 = load ptr, ptr %3, align 8, !tbaa !4
  %11 = getelementptr inbounds nuw %struct.AVFormatContext, ptr %10, i32 0, i32 3
  %12 = load ptr, ptr %11, align 8, !tbaa !11
  store ptr %12, ptr %5, align 8, !tbaa !27
  call void @llvm.lifetime.start.p0(i64 8, ptr %6) #9
  %13 = load ptr, ptr %5, align 8, !tbaa !27
  %14 = getelementptr inbounds nuw %struct.ogg, ptr %13, i32 0, i32 0
  %15 = load ptr, ptr %14, align 8, !tbaa !29
  %16 = load i32, ptr %4, align 4, !tbaa !9
  %17 = sext i32 %16 to i64
  %18 = getelementptr inbounds %struct.ogg_stream, ptr %15, i64 %17
  store ptr %18, ptr %6, align 8, !tbaa !33
  call void @llvm.lifetime.start.p0(i64 4, ptr %7) #9
  %19 = load ptr, ptr %6, align 8, !tbaa !33
  %20 = getelementptr inbounds nuw %struct.ogg_stream, ptr %19, i32 0, i32 10
  %21 = load i64, ptr %20, align 8, !tbaa !82
  %22 = icmp ne i64 %21, 0
  br i1 %22, label %23, label %28

23:                                               ; preds = %2
  %24 = load ptr, ptr %6, align 8, !tbaa !33
  %25 = getelementptr inbounds nuw %struct.ogg_stream, ptr %24, i32 0, i32 10
  %26 = load i64, ptr %25, align 8, !tbaa !82
  %27 = icmp eq i64 %26, -9223372036854775808
  br i1 %27, label %28, label %147

28:                                               ; preds = %23, %2
  %29 = load ptr, ptr %6, align 8, !tbaa !33
  %30 = getelementptr inbounds nuw %struct.ogg_stream, ptr %29, i32 0, i32 14
  %31 = load i32, ptr %30, align 8, !tbaa !83
  %32 = and i32 %31, 4
  %33 = icmp ne i32 %32, 0
  br i1 %33, label %147, label %34

34:                                               ; preds = %28
  call void @llvm.lifetime.start.p0(i64 4, ptr %8) #9
  call void @llvm.lifetime.start.p0(i64 8, ptr %9) #9
  store i32 1, ptr %7, align 4, !tbaa !9
  %35 = load ptr, ptr %6, align 8, !tbaa !33
  %36 = getelementptr inbounds nuw %struct.ogg_stream, ptr %35, i32 0, i32 18
  %37 = load i32, ptr %36, align 8, !tbaa !84
  store i32 %37, ptr %8, align 4, !tbaa !9
  br label %38

38:                                               ; preds = %57, %34
  %39 = load i32, ptr %8, align 4, !tbaa !9
  %40 = load ptr, ptr %6, align 8, !tbaa !33
  %41 = getelementptr inbounds nuw %struct.ogg_stream, ptr %40, i32 0, i32 17
  %42 = load i32, ptr %41, align 4, !tbaa !85
  %43 = icmp slt i32 %39, %42
  br i1 %43, label %44, label %60

44:                                               ; preds = %38
  %45 = load ptr, ptr %6, align 8, !tbaa !33
  %46 = getelementptr inbounds nuw %struct.ogg_stream, ptr %45, i32 0, i32 19
  %47 = load i32, ptr %8, align 4, !tbaa !9
  %48 = sext i32 %47 to i64
  %49 = getelementptr inbounds [255 x i8], ptr %46, i64 0, i64 %48
  %50 = load i8, ptr %49, align 1, !tbaa !55
  %51 = zext i8 %50 to i32
  %52 = icmp slt i32 %51, 255
  br i1 %52, label %53, label %56

53:                                               ; preds = %44
  %54 = load i32, ptr %7, align 4, !tbaa !9
  %55 = add nsw i32 %54, 1
  store i32 %55, ptr %7, align 4, !tbaa !9
  br label %56

56:                                               ; preds = %53, %44
  br label %57

57:                                               ; preds = %56
  %58 = load i32, ptr %8, align 4, !tbaa !9
  %59 = add nsw i32 %58, 1
  store i32 %59, ptr %8, align 4, !tbaa !9
  br label %38, !llvm.loop !86

60:                                               ; preds = %38
  %61 = load ptr, ptr %3, align 8, !tbaa !4
  %62 = load i32, ptr %4, align 4, !tbaa !9
  %63 = load ptr, ptr %6, align 8, !tbaa !33
  %64 = getelementptr inbounds nuw %struct.ogg_stream, ptr %63, i32 0, i32 8
  %65 = load i64, ptr %64, align 8, !tbaa !88
  %66 = call i64 @theora_gptopts(ptr noundef %61, i32 noundef %62, i64 noundef %65, ptr noundef null)
  store i64 %66, ptr %9, align 8, !tbaa !89
  %67 = load i64, ptr %9, align 8, !tbaa !89
  %68 = icmp ne i64 %67, -9223372036854775808
  br i1 %68, label %69, label %74

69:                                               ; preds = %60
  %70 = load i64, ptr %9, align 8, !tbaa !89
  %71 = load i32, ptr %7, align 4, !tbaa !9
  %72 = sext i32 %71 to i64
  %73 = call i64 @av_sat_sub64_c(i64 noundef %70, i64 noundef %72)
  store i64 %73, ptr %9, align 8, !tbaa !89
  br label %74

74:                                               ; preds = %69, %60
  %75 = load i64, ptr %9, align 8, !tbaa !89
  %76 = load ptr, ptr %6, align 8, !tbaa !33
  %77 = getelementptr inbounds nuw %struct.ogg_stream, ptr %76, i32 0, i32 11
  store i64 %75, ptr %77, align 8, !tbaa !90
  %78 = load ptr, ptr %6, align 8, !tbaa !33
  %79 = getelementptr inbounds nuw %struct.ogg_stream, ptr %78, i32 0, i32 10
  store i64 %75, ptr %79, align 8, !tbaa !82
  %80 = load ptr, ptr %3, align 8, !tbaa !4
  %81 = getelementptr inbounds nuw %struct.AVFormatContext, ptr %80, i32 0, i32 7
  %82 = load ptr, ptr %81, align 8, !tbaa !34
  %83 = load i32, ptr %4, align 4, !tbaa !9
  %84 = sext i32 %83 to i64
  %85 = getelementptr inbounds ptr, ptr %82, i64 %84
  %86 = load ptr, ptr %85, align 8, !tbaa !35
  %87 = getelementptr inbounds nuw %struct.AVStream, ptr %86, i32 0, i32 6
  %88 = load i64, ptr %87, align 8, !tbaa !91
  %89 = icmp eq i64 %88, -9223372036854775808
  br i1 %89, label %90, label %146

90:                                               ; preds = %74
  %91 = load ptr, ptr %6, align 8, !tbaa !33
  %92 = getelementptr inbounds nuw %struct.ogg_stream, ptr %91, i32 0, i32 10
  %93 = load i64, ptr %92, align 8, !tbaa !82
  %94 = icmp ne i64 %93, -9223372036854775808
  br i1 %94, label %95, label %146

95:                                               ; preds = %90
  %96 = load ptr, ptr %6, align 8, !tbaa !33
  %97 = getelementptr inbounds nuw %struct.ogg_stream, ptr %96, i32 0, i32 10
  %98 = load i64, ptr %97, align 8, !tbaa !82
  %99 = load ptr, ptr %3, align 8, !tbaa !4
  %100 = getelementptr inbounds nuw %struct.AVFormatContext, ptr %99, i32 0, i32 7
  %101 = load ptr, ptr %100, align 8, !tbaa !34
  %102 = load i32, ptr %4, align 4, !tbaa !9
  %103 = sext i32 %102 to i64
  %104 = getelementptr inbounds ptr, ptr %101, i64 %103
  %105 = load ptr, ptr %104, align 8, !tbaa !35
  %106 = getelementptr inbounds nuw %struct.AVStream, ptr %105, i32 0, i32 6
  store i64 %98, ptr %106, align 8, !tbaa !91
  %107 = load ptr, ptr %3, align 8, !tbaa !4
  %108 = getelementptr inbounds nuw %struct.AVFormatContext, ptr %107, i32 0, i32 7
  %109 = load ptr, ptr %108, align 8, !tbaa !34
  %110 = load i32, ptr %4, align 4, !tbaa !9
  %111 = sext i32 %110 to i64
  %112 = getelementptr inbounds ptr, ptr %109, i64 %111
  %113 = load ptr, ptr %112, align 8, !tbaa !35
  %114 = getelementptr inbounds nuw %struct.AVStream, ptr %113, i32 0, i32 7
  %115 = load i64, ptr %114, align 8, !tbaa !92
  %116 = icmp sgt i64 %115, 0
  br i1 %116, label %117, label %145

117:                                              ; preds = %95
  %118 = load ptr, ptr %3, align 8, !tbaa !4
  %119 = getelementptr inbounds nuw %struct.AVFormatContext, ptr %118, i32 0, i32 7
  %120 = load ptr, ptr %119, align 8, !tbaa !34
  %121 = load i32, ptr %4, align 4, !tbaa !9
  %122 = sext i32 %121 to i64
  %123 = getelementptr inbounds ptr, ptr %120, i64 %122
  %124 = load ptr, ptr %123, align 8, !tbaa !35
  %125 = getelementptr inbounds nuw %struct.AVStream, ptr %124, i32 0, i32 7
  %126 = load i64, ptr %125, align 8, !tbaa !92
  %127 = load ptr, ptr %3, align 8, !tbaa !4
  %128 = getelementptr inbounds nuw %struct.AVFormatContext, ptr %127, i32 0, i32 7
  %129 = load ptr, ptr %128, align 8, !tbaa !34
  %130 = load i32, ptr %4, align 4, !tbaa !9
  %131 = sext i32 %130 to i64
  %132 = getelementptr inbounds ptr, ptr %129, i64 %131
  %133 = load ptr, ptr %132, align 8, !tbaa !35
  %134 = getelementptr inbounds nuw %struct.AVStream, ptr %133, i32 0, i32 6
  %135 = load i64, ptr %134, align 8, !tbaa !91
  %136 = call i64 @av_sat_sub64_c(i64 noundef %126, i64 noundef %135)
  %137 = load ptr, ptr %3, align 8, !tbaa !4
  %138 = getelementptr inbounds nuw %struct.AVFormatContext, ptr %137, i32 0, i32 7
  %139 = load ptr, ptr %138, align 8, !tbaa !34
  %140 = load i32, ptr %4, align 4, !tbaa !9
  %141 = sext i32 %140 to i64
  %142 = getelementptr inbounds ptr, ptr %139, i64 %141
  %143 = load ptr, ptr %142, align 8, !tbaa !35
  %144 = getelementptr inbounds nuw %struct.AVStream, ptr %143, i32 0, i32 7
  store i64 %136, ptr %144, align 8, !tbaa !92
  br label %145

145:                                              ; preds = %117, %95
  br label %146

146:                                              ; preds = %145, %90, %74
  call void @llvm.lifetime.end.p0(i64 8, ptr %9) #9
  call void @llvm.lifetime.end.p0(i64 4, ptr %8) #9
  br label %147

147:                                              ; preds = %146, %28, %23
  %148 = load ptr, ptr %6, align 8, !tbaa !33
  %149 = getelementptr inbounds nuw %struct.ogg_stream, ptr %148, i32 0, i32 4
  %150 = load i32, ptr %149, align 4, !tbaa !52
  %151 = icmp ugt i32 %150, 0
  br i1 %151, label %152, label %155

152:                                              ; preds = %147
  %153 = load ptr, ptr %6, align 8, !tbaa !33
  %154 = getelementptr inbounds nuw %struct.ogg_stream, ptr %153, i32 0, i32 6
  store i32 1, ptr %154, align 4, !tbaa !93
  br label %155

155:                                              ; preds = %152, %147
  call void @llvm.lifetime.end.p0(i64 4, ptr %7) #9
  call void @llvm.lifetime.end.p0(i64 8, ptr %6) #9
  call void @llvm.lifetime.end.p0(i64 8, ptr %5) #9
  ret i32 0
}