; Function Attrs: nofree norecurse nosync nounwind memory(readwrite, inaccessiblemem: none) uwtable
define internal noundef i32 @theora_packet(ptr noundef readonly captures(none) %0, i32 noundef %1) #1 {
  %3 = getelementptr inbounds nuw i8, ptr %0, i64 24
  %4 = load ptr, ptr %3, align 8, !tbaa !4
  %5 = load ptr, ptr %4, align 8, !tbaa !24
  %6 = sext i32 %1 to i64
  %7 = getelementptr inbounds %struct.ogg_stream, ptr %5, i64 %6
  %8 = getelementptr inbounds nuw i8, ptr %7, i64 56
  %9 = load i64, ptr %8, align 8, !tbaa !72
  switch i64 %9, label %73 [
    i64 0, label %10
    i64 -9223372036854775808, label %10
  ]

10:                                               ; preds = %2, %2
  %11 = getelementptr inbounds nuw i8, ptr %7, i64 88
  %12 = load i32, ptr %11, align 8, !tbaa !73
  %13 = and i32 %12, 4
  %.not43 = icmp eq i32 %13, 0
  br i1 %.not43, label %14, label %73

14:                                               ; preds = %10
  %15 = getelementptr inbounds nuw i8, ptr %7, i64 112
  %16 = load i32, ptr %15, align 8, !tbaa !74
  %17 = getelementptr inbounds nuw i8, ptr %7, i64 108
  %18 = load i32, ptr %17, align 4, !tbaa !75
  %19 = icmp slt i32 %16, %18
  br i1 %19, label %.lr.ph, label %._crit_edge

.lr.ph:                                           ; preds = %14
  %20 = getelementptr inbounds nuw i8, ptr %7, i64 116
  %21 = sext i32 %16 to i64
  %wide.trip.count = sext i32 %18 to i64
  br label %22

22:                                               ; preds = %.lr.ph, %22
  %indvars.iv = phi i64 [ %21, %.lr.ph ], [ %indvars.iv.next, %22 ]
  %.03850 = phi i32 [ 1, %.lr.ph ], [ %spec.select, %22 ]
  %23 = getelementptr inbounds [255 x i8], ptr %20, i64 0, i64 %indvars.iv
  %24 = load i8, ptr %23, align 1, !tbaa !46
  %.not46 = icmp ne i8 %24, -1
  %25 = zext i1 %.not46 to i32
  %spec.select = add nuw nsw i32 %.03850, %25
  %indvars.iv.next = add nsw i64 %indvars.iv, 1
  %exitcond.not = icmp eq i64 %indvars.iv.next, %wide.trip.count
  br i1 %exitcond.not, label %._crit_edge.loopexit, label %22, !llvm.loop !76

._crit_edge.loopexit:                             ; preds = %22
  %26 = zext nneg i32 %spec.select to i64
  br label %._crit_edge

._crit_edge:                                      ; preds = %._crit_edge.loopexit, %14
  %.038.lcssa = phi i64 [ 1, %14 ], [ %26, %._crit_edge.loopexit ]
  %27 = getelementptr inbounds nuw i8, ptr %7, i64 424
  %28 = load ptr, ptr %27, align 8, !tbaa !47
  %.not.i = icmp eq ptr %28, null
  br i1 %.not.i, label %theora_gptopts.exit.thread, label %29

29:                                               ; preds = %._crit_edge
  %30 = getelementptr inbounds nuw i8, ptr %7, i64 40
  %31 = load i64, ptr %30, align 8, !tbaa !78
  %32 = load i32, ptr %28, align 4, !tbaa !54
  %33 = zext nneg i32 %32 to i64
  %34 = lshr i64 %31, %33
  %35 = getelementptr inbounds nuw i8, ptr %28, i64 4
  %36 = load i32, ptr %35, align 4, !tbaa !55
  %37 = sext i32 %36 to i64
  %38 = and i64 %31, %37
  %39 = getelementptr inbounds nuw i8, ptr %28, i64 8
  %40 = load i32, ptr %39, align 4, !tbaa !48
  %41 = icmp ult i32 %40, 197121
  %42 = zext i1 %41 to i64
  %.not22.i = icmp eq i64 %38, 0
  br i1 %.not22.i, label %43, label %theora_gptopts.exit

43:                                               ; preds = %29
  %44 = getelementptr inbounds nuw i8, ptr %7, i64 24
  %45 = load i32, ptr %44, align 8, !tbaa !79
  %46 = or i32 %45, 1
  store i32 %46, ptr %44, align 8, !tbaa !79
  br label %theora_gptopts.exit

theora_gptopts.exit:                              ; preds = %29, %43
  %spec.select.i = add i64 %38, %34
  %.pre.i = add i64 %spec.select.i, %42
  %.not44 = icmp eq i64 %.pre.i, -9223372036854775808
  br i1 %.not44, label %theora_gptopts.exit.thread, label %47

47:                                               ; preds = %theora_gptopts.exit
  %48 = tail call { i64, i1 } @llvm.ssub.with.overflow.i64(i64 range(i64 -9223372036854775807, -9223372036854775808) %.pre.i, i64 %.038.lcssa)
  %49 = extractvalue { i64, i1 } %48, 1
  %50 = extractvalue { i64, i1 } %48, 0
  %51 = icmp slt i64 %50, 0
  %52 = select i1 %51, i64 9223372036854775807, i64 -9223372036854775808
  %53 = select i1 %49, i64 %52, i64 %50
  br label %theora_gptopts.exit.thread

theora_gptopts.exit.thread:                       ; preds = %._crit_edge, %47, %theora_gptopts.exit
  %.0 = phi i64 [ %53, %47 ], [ -9223372036854775808, %theora_gptopts.exit ], [ -9223372036854775808, %._crit_edge ]
  %54 = getelementptr inbounds nuw i8, ptr %7, i64 64
  store i64 %.0, ptr %54, align 8, !tbaa !80
  store i64 %.0, ptr %8, align 8, !tbaa !72
  %55 = getelementptr inbounds nuw i8, ptr %0, i64 48
  %56 = load ptr, ptr %55, align 8, !tbaa !28
  %57 = getelementptr inbounds ptr, ptr %56, i64 %6
  %58 = load ptr, ptr %57, align 8, !tbaa !29
  %59 = getelementptr inbounds nuw i8, ptr %58, i64 40
  %60 = load i64, ptr %59, align 8, !tbaa !81
  %61 = icmp ne i64 %60, -9223372036854775808
  %.not45 = icmp eq i64 %.0, -9223372036854775808
  %or.cond = select i1 %61, i1 true, i1 %.not45
  br i1 %or.cond, label %73, label %62

62:                                               ; preds = %theora_gptopts.exit.thread
  store i64 %.0, ptr %59, align 8, !tbaa !81
  %63 = getelementptr inbounds nuw i8, ptr %58, i64 48
  %64 = load i64, ptr %63, align 8, !tbaa !82
  %65 = icmp sgt i64 %64, 0
  br i1 %65, label %66, label %73

66:                                               ; preds = %62
  %67 = tail call { i64, i1 } @llvm.ssub.with.overflow.i64(i64 range(i64 -9223372036854775807, -9223372036854775808) %64, i64 %.0)
  %68 = extractvalue { i64, i1 } %67, 1
  %69 = extractvalue { i64, i1 } %67, 0
  %70 = icmp slt i64 %69, 0
  %71 = select i1 %70, i64 9223372036854775807, i64 -9223372036854775808
  %72 = select i1 %68, i64 %71, i64 %69
  store i64 %72, ptr %63, align 8, !tbaa !82
  br label %73

73:                                               ; preds = %theora_gptopts.exit.thread, %66, %62, %2, %10
  %74 = getelementptr inbounds nuw i8, ptr %7, i64 20
  %75 = load i32, ptr %74, align 4, !tbaa !41
  %.not47 = icmp eq i32 %75, 0
  br i1 %.not47, label %78, label %76

76:                                               ; preds = %73
  %77 = getelementptr inbounds nuw i8, ptr %7, i64 28
  store i32 1, ptr %77, align 4, !tbaa !83
  br label %78

78:                                               ; preds = %76, %73
  ret i32 0
}